; Function Attrs: mustprogress nofree nounwind uwtable
define void @_ZN6icu_777Package15checkDependencyEPvPKcS3_(ptr noundef captures(none) %0, ptr noundef %1, ptr noundef %2) #8 align 2 {
  %4 = getelementptr inbounds nuw i8, ptr %0, i64 1172
  %5 = load i32, ptr %4, align 4, !tbaa !29
  %6 = icmp sgt i32 %5, 0
  br i1 %6, label %.lr.ph.i, label %_ZNK6icu_777Package8findItemEPKci.exit.thread7

.lr.ph.i:                                         ; preds = %3
  %7 = getelementptr inbounds nuw i8, ptr %0, i64 1184
  %8 = load ptr, ptr %7, align 8
  br label %.lr.ph.split.i

.lr.ph.split.i:                                   ; preds = %16, %.lr.ph.i
  %.02539.i = phi i32 [ %.1.i, %16 ], [ %5, %.lr.ph.i ]
  %.02638.i = phi i32 [ %.127.i, %16 ], [ 0, %.lr.ph.i ]
  %9 = add nuw nsw i32 %.02638.i, %.02539.i
  %10 = lshr i32 %9, 1
  %11 = zext nneg i32 %10 to i64
  %12 = getelementptr inbounds nuw %"struct.icu_77::Item", ptr %8, i64 %11
  %13 = load ptr, ptr %12, align 8, !tbaa !54
  %14 = tail call i32 @strcmp(ptr noundef nonnull readonly dereferenceable(1) %2, ptr noundef nonnull dereferenceable(1) %13) #24
  %15 = icmp eq i32 %14, 0
  br i1 %15, label %_ZNK6icu_777Package8findItemEPKci.exit.thread, label %16

16:                                               ; preds = %.lr.ph.split.i
  %17 = icmp slt i32 %14, 0
  %18 = add nuw nsw i32 %10, 1
  %.127.i = select i1 %17, i32 %.02638.i, i32 %18
  %.1.i = select i1 %17, i32 %10, i32 %.02539.i
  %19 = icmp slt i32 %.127.i, %.1.i
  br i1 %19, label %.lr.ph.split.i, label %_ZNK6icu_777Package8findItemEPKci.exit.thread7, !llvm.loop !68

_ZNK6icu_777Package8findItemEPKci.exit.thread7:   ; preds = %16, %3
  %20 = getelementptr inbounds nuw i8, ptr %0, i64 201236
  store i8 1, ptr %20, align 4, !tbaa !80
  %21 = load ptr, ptr @stderr, align 8, !tbaa !36
  %22 = tail call i32 (ptr, ptr, ...) @fprintf(ptr noundef %21, ptr noundef nonnull @.str.32, ptr noundef %1, ptr noundef %2) #25
  br label %_ZNK6icu_777Package8findItemEPKci.exit.thread

_ZNK6icu_777Package8findItemEPKci.exit.thread:    ; preds = %.lr.ph.split.i, %_ZNK6icu_777Package8findItemEPKci.exit.thread7
  ret void
}